; Function Attrs: nounwind uwtable
define hidden void @dissect_zbee_zdp_req_nwk_addr(ptr noundef %0, ptr noundef %1, ptr noundef %2) local_unnamed_addr #0 {
  %4 = alloca i32, align 4
  store i32 0, ptr %4, align 4
  %5 = load i32, ptr @hf_zbee_zdp_ext_addr, align 4
  %6 = call i64 @zbee_parse_eui64(ptr noundef %2, i32 noundef %5, ptr noundef %0, ptr noundef nonnull %4, i32 noundef 8, ptr noundef null) #2
  %7 = load i32, ptr @hf_zbee_zdp_req_type, align 4
  %8 = load i32, ptr %4, align 4
  %9 = call ptr @proto_tree_add_item(ptr noundef %2, i32 noundef %7, ptr noundef %0, i32 noundef %8, i32 noundef 1, i32 noundef -2147483648) #2
  %10 = load i32, ptr %4, align 4
  %11 = add i32 %10, 1
  store i32 %11, ptr %4, align 4
  %12 = load i32, ptr @hf_zbee_zdp_index, align 4
  %13 = call ptr @proto_tree_add_item(ptr noundef %2, i32 noundef %12, ptr noundef %0, i32 noundef %11, i32 noundef 1, i32 noundef -2147483648) #2
  %14 = load i32, ptr %4, align 4
  %15 = add i32 %14, 1
  store i32 %15, ptr %4, align 4
  %16 = getelementptr inbounds nuw i8, ptr %1, i64 408
  %17 = load ptr, ptr %16, align 8
  %18 = call ptr @eui64_to_display(ptr noundef %17, i64 noundef %6) #2
  call void (ptr, ptr, ptr, ...) @zbee_append_info(ptr noundef %2, ptr noundef %1, ptr noundef nonnull @.str, ptr noundef %18) #2
  %19 = load i32, ptr %4, align 4
  call void @zdp_dump_excess(ptr noundef %0, i32 noundef %19, ptr noundef %1, ptr noundef %2) #2
  ret void
}